; Function Attrs: mustprogress uwtable
define void @_ZN7Archive4SeekEli(ptr noundef nonnull align 8 dereferenceable(57108) %0, i64 noundef %1, i32 noundef %2) unnamed_addr #0 align 2 {
  %4 = getelementptr inbounds i8, ptr %0, i64 11088
  %5 = tail call noundef zeroext i1 @_ZN9QuickOpen4SeekEli(ptr noundef nonnull align 8 dereferenceable(2673) %4, i64 noundef %1, i32 noundef %2)
  br i1 %5, label %7, label %6

6:                                                ; preds = %3
  tail call void @_ZN4File4SeekEli(ptr noundef nonnull align 8 dereferenceable(8256) %0, i64 noundef %1, i32 noundef %2)
  br label %7

7:                                                ; preds = %6, %3
  ret void
}